; Function Attrs: nounwind uwtable
define internal fastcc void @ch_update_idle(ptr noundef captures(none) initializes((1520, 1528)) %0) unnamed_addr #0 {
  %2 = load ptr, ptr %0, align 8, !tbaa !3
  %3 = tail call i64 @ossl_quic_port_get_time(ptr noundef %2) #15
  %4 = getelementptr inbounds nuw i8, ptr %0, i64 1400
  %5 = load i64, ptr %4, align 8, !tbaa !147
  %6 = icmp eq i64 %5, 0
  br i1 %6, label %ch_get_effective_idle_timeout_duration.exit, label %7

7:                                                ; preds = %1
  %8 = getelementptr inbounds nuw i8, ptr %0, i64 1048
  %9 = load ptr, ptr %8, align 8, !tbaa !84
  %10 = tail call i64 @ossl_ackm_get_pto_duration(ptr noundef %9) #15
  %11 = load i64, ptr %4, align 8, !tbaa !147
  %12 = mul i64 %11, 1000000
  %13 = tail call { i64, i1 } @llvm.umul.with.overflow.i64(i64 %10, i64 3)
  %14 = extractvalue { i64, i1 } %13, 1
  %15 = extractvalue { i64, i1 } %13, 0
  %16 = tail call i64 @llvm.umax.i64(i64 %12, i64 %15)
  %..i.i = select i1 %14, i64 -1, i64 %16
  br label %ch_get_effective_idle_timeout_duration.exit

ch_get_effective_idle_timeout_duration.exit:      ; preds = %1, %7
  %.sroa.06.0.i = phi i64 [ %..i.i, %7 ], [ -1, %1 ]
  %17 = getelementptr inbounds nuw i8, ptr %0, i64 1520
  %.sroa.03.0.i = tail call i64 @llvm.uadd.sat.i64(i64 %3, i64 %.sroa.06.0.i)
  store i64 %.sroa.03.0.i, ptr %17, align 8, !tbaa !71
  ret void
}